target datalayout = "e-m:e-p270:32:32-p271:32:32-p272:64:64-i64:64-i128:128-f80:128-n8:16:32:64-S128"
target triple = "x86_64-pc-linux-gnu"

%struct._netif = type { ptr, i32, i8, ptr, ptr, ptr }
%struct._netaddr = type { ptr, ptr, i16, i32, ptr }

; Function Attrs: nounwind uwtable
define internal void @freeif(ptr noundef %0) #0 {
  %2 = alloca ptr, align 8
  %3 = alloca ptr, align 8
  %4 = alloca ptr, align 8
  %5 = alloca ptr, align 8
  store ptr %0, ptr %2, align 8
  %6 = load ptr, ptr %2, align 8
  store ptr %6, ptr %3, align 8
  br label %7

7:                                                ; preds = %32, %1
  %8 = load ptr, ptr %3, align 8
  %9 = icmp ne ptr %8, null
  br i1 %9, label %10, label %38

10:                                               ; preds = %7
  %11 = load ptr, ptr %3, align 8
  %12 = getelementptr inbounds %struct._netif, ptr %11, i32 0, i32 3
  %13 = load ptr, ptr %12, align 8
  store ptr %13, ptr %4, align 8
  br label %14

14:                                               ; preds = %17, %10
  %15 = load ptr, ptr %4, align 8
  %16 = icmp ne ptr %15, null
  br i1 %16, label %17, label %23

17:                                               ; preds = %14
  %18 = load ptr, ptr %4, align 8
  %19 = getelementptr inbounds %struct._netaddr, ptr %18, i32 0, i32 4
  %20 = load ptr, ptr %19, align 8
  store ptr %20, ptr %5, align 8
  %21 = load ptr, ptr %4, align 8
  call void @free(ptr noundef %21) #10
  %22 = load ptr, ptr %5, align 8
  store ptr %22, ptr %4, align 8
  br label %14, !llvm.loop !13

23:                                               ; preds = %14
  %24 = load ptr, ptr %3, align 8
  %25 = getelementptr inbounds %struct._netif, ptr %24, i32 0, i32 4
  %26 = load ptr, ptr %25, align 8
  %27 = icmp ne ptr %26, null
  br i1 %27, label %28, label %32

28:                                               ; preds = %23
  %29 = load ptr, ptr %3, align 8
  %30 = getelementptr inbounds %struct._netif, ptr %29, i32 0, i32 4
  %31 = load ptr, ptr %30, align 8
  call void @freeif(ptr noundef %31)
  br label %32

32:                                               ; preds = %28, %23
  %33 = load ptr, ptr %3, align 8
  %34 = getelementptr inbounds %struct._netif, ptr %33, i32 0, i32 5
  %35 = load ptr, ptr %34, align 8
  store ptr %35, ptr %2, align 8
  %36 = load ptr, ptr %3, align 8
  call void @free(ptr noundef %36) #10
  %37 = load ptr, ptr %2, align 8
  store ptr %37, ptr %3, align 8
  br label %7, !llvm.loop !14

38:                                               ; preds = %7
  ret void
}