; Function Attrs: nounwind uwtable
define internal fastcc void @freeif(ptr noundef %0) unnamed_addr #0 {
  %.not18 = icmp eq ptr %0, null
  br i1 %.not18, label %._crit_edge22, label %.lr.ph21

.lr.ph21:                                         ; preds = %1, %9
  %.01219 = phi ptr [ %11, %9 ], [ %0, %1 ]
  %2 = getelementptr inbounds i8, ptr %.01219, i64 16
  %3 = load ptr, ptr %2, align 8
  %.not1416 = icmp eq ptr %3, null
  br i1 %.not1416, label %._crit_edge, label %.lr.ph

.lr.ph:                                           ; preds = %.lr.ph21, %.lr.ph
  %.017 = phi ptr [ %5, %.lr.ph ], [ %3, %.lr.ph21 ]
  %4 = getelementptr inbounds i8, ptr %.017, i64 24
  %5 = load ptr, ptr %4, align 8
  tail call void @free(ptr noundef nonnull %.017) #14
  %.not14 = icmp eq ptr %5, null
  br i1 %.not14, label %._crit_edge, label %.lr.ph, !llvm.loop !13

._crit_edge:                                      ; preds = %.lr.ph, %.lr.ph21
  %6 = getelementptr inbounds i8, ptr %.01219, i64 24
  %7 = load ptr, ptr %6, align 8
  %.not15 = icmp eq ptr %7, null
  br i1 %.not15, label %9, label %8

8:                                                ; preds = %._crit_edge
  tail call fastcc void @freeif(ptr noundef nonnull %7)
  br label %9

9:                                                ; preds = %8, %._crit_edge
  %10 = getelementptr inbounds i8, ptr %.01219, i64 32
  %11 = load ptr, ptr %10, align 8
  tail call void @free(ptr noundef nonnull %.01219) #14
  %.not = icmp eq ptr %11, null
  br i1 %.not, label %._crit_edge22, label %.lr.ph21, !llvm.loop !14

._crit_edge22:                                    ; preds = %9, %1
  ret void
}